(dp0
S'name'
p1
S'conergence_data1'
p2
sS'learning_rate'
p3
F0.0001
sS'top1'
p4
(lp5
cnumpy.core.multiarray
scalar
p6
(cnumpy
dtype
p7
(S'f4'
p8
I0
I1
tp9
Rp10
(I3
S'<'
p11
NNNI-1
I-1
I0
tp12
bS'\x00\x00\x00<'
p13
tp14
Rp15
ag6
(g10
S'\x00\x00\xb8='
p16
tp17
Rp18
ag6
(g10
S'\x00\x00\x00>'
p19
tp20
Rp21
ag6
(g10
S'\x00\x00@>'
p22
tp23
Rp24
ag6
(g10
S'\x00\x004>'
p25
tp26
Rp27
ag6
(g10
S'\x00\x00\x10>'
p28
tp29
Rp30
ag6
(g10
S'\x00\x00L>'
p31
tp32
Rp33
ag6
(g10
S'\x00\x00P>'
p34
tp35
Rp36
ag6
(g10
S'\x00\x00\\>'
p37
tp38
Rp39
ag6
(g10
S'\x00\x00`>'
p40
tp41
Rp42
ag6
(g10
S'\x00\x00\x86>'
p43
tp44
Rp45
ag6
(g10
S'\x00\x00p>'
p46
tp47
Rp48
ag6
(g10
S'\x00\x00H>'
p49
tp50
Rp51
ag6
(g10
S'\x00\x00P>'
p52
tp53
Rp54
ag6
(g10
S'\x00\x00\x86>'
p55
tp56
Rp57
ag6
(g10
S'\x00\x00\x82>'
p58
tp59
Rp60
ag6
(g10
S'\x00\x00\x92>'
p61
tp62
Rp63
ag6
(g10
S'\x00\x00\xaa>'
p64
tp65
Rp66
ag6
(g10
S'\x00\x00\x88>'
p67
tp68
Rp69
ag6
(g10
S'\x00\x00|>'
p70
tp71
Rp72
ag6
(g10
S'\x00\x00\xb4>'
p73
tp74
Rp75
ag6
(g10
S'\x00\x00\xa8>'
p76
tp77
Rp78
ag6
(g10
S'\x00\x00\xa8>'
p79
tp80
Rp81
ag6
(g10
S'\x00\x00\x92>'
p82
tp83
Rp84
ag6
(g10
S'\x00\x00\x92>'
p85
tp86
Rp87
ag6
(g10
S'\x00\x00\xaa>'
p88
tp89
Rp90
ag6
(g10
S'\x00\x00\xa4>'
p91
tp92
Rp93
ag6
(g10
S'\x00\x00\x98>'
p94
tp95
Rp96
ag6
(g10
S'\x00\x00\xba>'
p97
tp98
Rp99
ag6
(g10
S'\x00\x00\xc2>'
p100
tp101
Rp102
ag6
(g10
S'\x00\x00\x9c>'
p103
tp104
Rp105
ag6
(g10
S'\x00\x00\xbc>'
p106
tp107
Rp108
ag6
(g10
S'\x00\x00\xc0>'
p109
tp110
Rp111
ag6
(g10
S'\x00\x00\xb4>'
p112
tp113
Rp114
ag6
(g10
S'\x00\x00\xc2>'
p115
tp116
Rp117
ag6
(g10
S'\x00\x00\xb6>'
p118
tp119
Rp120
ag6
(g10
S'\x00\x00\xae>'
p121
tp122
Rp123
ag6
(g10
S'\x00\x00\xc6>'
p124
tp125
Rp126
ag6
(g10
S'\x00\x00\xd2>'
p127
tp128
Rp129
ag6
(g10
S'\x00\x00\xb0>'
p130
tp131
Rp132
asS'notes'
p133
S''
p134
sS'dropout'
p135
F0.5
sS'top5'
p136
(lp137
g6
(g10
S'\x00\x00p='
p138
tp139
Rp140
ag6
(g10
S'\x00\x00\x8e>'
p141
tp142
Rp143
ag6
(g10
S'\x00\x00\xb2>'
p144
tp145
Rp146
ag6
(g10
S'\x00\x00\xdc>'
p147
tp148
Rp149
ag6
(g10
S'\x00\x00\x00?'
p150
tp151
Rp152
ag6
(g10
S'\x00\x00\xc6>'
p153
tp154
Rp155
ag6
(g10
S'\x00\x00\xea>'
p156
tp157
Rp158
ag6
(g10
S'\x00\x00\xf4>'
p159
tp160
Rp161
ag6
(g10
S'\x00\x00\t?'
p162
tp163
Rp164
ag6
(g10
S'\x00\x00\xfe>'
p165
tp166
Rp167
ag6
(g10
S'\x00\x00\x11?'
p168
tp169
Rp170
ag6
(g10
S'\x00\x00\x07?'
p171
tp172
Rp173
ag6
(g10
S'\x00\x00\x05?'
p174
tp175
Rp176
ag6
(g10
S'\x00\x00\x03?'
p177
tp178
Rp179
ag6
(g10
S'\x00\x00\x0e?'
p180
tp181
Rp182
ag6
(g10
S'\x00\x00\x16?'
p183
tp184
Rp185
ag6
(g10
S'\x00\x00\x16?'
p186
tp187
Rp188
ag6
(g10
S'\x00\x00\x1e?'
p189
tp190
Rp191
ag6
(g10
S'\x00\x00\x14?'
p192
tp193
Rp194
ag6
(g10
S'\x00\x00\x1e?'
p195
tp196
Rp197
ag6
(g10
S'\x00\x00(?'
p198
tp199
Rp200
ag6
(g10
S'\x00\x00\x1a?'
p201
tp202
Rp203
ag6
(g10
S'\x00\x00\x1f?'
p204
tp205
Rp206
ag6
(g10
S'\x00\x00!?'
p207
tp208
Rp209
ag6
(g10
S'\x00\x00\x1e?'
p210
tp211
Rp212
ag6
(g10
S'\x00\x00\x13?'
p213
tp214
Rp215
ag6
(g10
S'\x00\x00"?'
p216
tp217
Rp218
ag6
(g10
S'\x00\x00\x1e?'
p219
tp220
Rp221
ag6
(g10
S'\x00\x00/?'
p222
tp223
Rp224
ag6
(g10
S'\x00\x00 ?'
p225
tp226
Rp227
ag6
(g10
S'\x00\x00#?'
p228
tp229
Rp230
ag6
(g10
S'\x00\x00+?'
p231
tp232
Rp233
ag6
(g10
S'\x00\x004?'
p234
tp235
Rp236
ag6
(g10
S'\x00\x00%?'
p237
tp238
Rp239
ag6
(g10
S'\x00\x005?'
p240
tp241
Rp242
ag6
(g10
S'\x00\x007?'
p243
tp244
Rp245
ag6
(g10
S'\x00\x00\x18?'
p246
tp247
Rp248
ag6
(g10
S'\x00\x00&?'
p249
tp250
Rp251
ag6
(g10
S'\x00\x004?'
p252
tp253
Rp254
ag6
(g10
S'\x00\x00\x1e?'
p255
tp256
Rp257
as.