(dp0
S'top1_t'
p1
(lp2
cnumpy.core.multiarray
scalar
p3
(cnumpy
dtype
p4
(S'f4'
p5
I0
I1
tp6
Rp7
(I3
S'<'
p8
NNNI-1
I-1
I0
tp9
bS'6^\xba>'
p10
tp11
Rp12
ag3
(g7
S'\x16\xd9\xce>'
p13
tp14
Rp15
ag3
(g7
S'd;\xdf>'
p16
tp17
Rp18
ag3
(g7
S'\xcd\xcc\xcc>'
p19
tp20
Rp21
ag3
(g7
S'\\\x8f\xc2>'
p22
tp23
Rp24
ag3
(g7
S'4^\xba>'
p25
tp26
Rp27
ag3
(g7
S'\x7fj\xbc>'
p28
tp29
Rp30
ag3
(g7
S'\xcc\xcc\xcc>'
p31
tp32
Rp33
ag3
(g7
S'\x17\xd9\xce>'
p34
tp35
Rp36
ag3
(g7
S'B`\xe5>'
p37
tp38
Rp39
ag3
(g7
S'\x86\x16\xd9>'
p40
tp41
Rp42
ag3
(g7
S'\xf3\xfd\xd4>'
p43
tp44
Rp45
ag3
(g7
S'\x13\x83\xc0>'
p46
tp47
Rp48
ag3
(g7
S'\xa6\x9b\xc4>'
p49
tp50
Rp51
ag3
(g7
S'\xc9v\xbe>'
p52
tp53
Rp54
ag3
(g7
S'\x16\xd9\xce>'
p55
tp56
Rp57
ag3
(g7
S'\xaeG\xe1>'
p58
tp59
Rp60
ag3
(g7
S'=\n\xd7>'
p61
tp62
Rp63
ag3
(g7
S'\x1a/\xdd>'
p64
tp65
Rp66
ag3
(g7
S'\x1b/\xdd>'
p67
tp68
Rp69
ag3
(g7
S':\xb4\xc8>'
p70
tp71
Rp72
ag3
(g7
S'\xcc\xcc\xcc>'
p73
tp74
Rp75
ag3
(g7
S'\\\x8f\xc2>'
p76
tp77
Rp78
ag3
(g7
S'\xf0\xa7\xc6>'
p79
tp80
Rp81
ag3
(g7
S'B`\xe5>'
p82
tp83
Rp84
ag3
(g7
S'\x86\x16\xd9>'
p85
tp86
Rp87
ag3
(g7
S'\x86\x16\xd9>'
p88
tp89
Rp90
ag3
(g7
S'\xf8S\xe3>'
p91
tp92
Rp93
ag3
(g7
S'\xf5\xfd\xd4>'
p94
tp95
Rp96
ag3
(g7
S'\xd1"\xdb>'
p97
tp98
Rp99
ag3
(g7
S'\x16\xd9\xce>'
p100
tp101
Rp102
ag3
(g7
S'9\xb4\xc8>'
p103
tp104
Rp105
ag3
(g7
S'\x1a/\xdd>'
p106
tp107
Rp108
ag3
(g7
S'`\xe5\xd0>'
p109
tp110
Rp111
ag3
(g7
S'\x88\x16\xd9>'
p112
tp113
Rp114
ag3
(g7
S'd;\xdf>'
p115
tp116
Rp117
ag3
(g7
S'\xcd\xcc\xcc>'
p118
tp119
Rp120
ag3
(g7
S'\xaeG\xe1>'
p121
tp122
Rp123
ag3
(g7
S'\\\x8f\xc2>'
p124
tp125
Rp126
ag3
(g7
S'\xcc\xcc\xcc>'
p127
tp128
Rp129
asS'top1_v'
p130
(lp131
g3
(g7
S')\\\x8f>'
p132
tp133
Rp134
ag3
(g7
S'2\x08\xac>'
p135
tp136
Rp137
ag3
(g7
S'\x7fj\xbc>'
p138
tp139
Rp140
ag3
(g7
S'\xc2\xca\xa1>'
p141
tp142
Rp143
ag3
(g7
S'\x13\x83\xc0>'
p144
tp145
Rp146
ag3
(g7
S'\xc4 \xb0>'
p147
tp148
Rp149
ag3
(g7
S'\x9e\xef\xa7>'
p150
tp151
Rp152
ag3
(g7
S'\xeaQ\xb8>'
p153
tp154
Rp155
ag3
(g7
S'`\xe5\xd0>'
p156
tp157
Rp158
ag3
(g7
S'\x9e\xef\xa7>'
p159
tp160
Rp161
ag3
(g7
S'\x87\x16\xd9>'
p162
tp163
Rp164
ag3
(g7
S'\x84\xc0\xca>'
p165
tp166
Rp167
ag3
(g7
S'P\x8d\x97>'
p168
tp169
Rp170
ag3
(g7
S'\x7fj\xbc>'
p171
tp172
Rp173
ag3
(g7
S'1\x08\xac>'
p174
tp175
Rp176
ag3
(g7
S'\xaa\xf1\xd2>'
p177
tp178
Rp179
ag3
(g7
S'\xee\xa7\xc6>'
p180
tp181
Rp182
ag3
(g7
S'\x16\xd9\xce>'
p183
tp184
Rp185
ag3
(g7
S'\xc4 \xb0>'
p186
tp187
Rp188
ag3
(g7
S'\xc8v\xbe>'
p189
tp190
Rp191
ag3
(g7
S'\xf0\xa7\xc6>'
p192
tp193
Rp194
ag3
(g7
S'\xf4\xfd\xd4>'
p195
tp196
Rp197
ag3
(g7
S'\xc9v\xbe>'
p198
tp199
Rp200
ag3
(g7
S'\x0f-\xb2>'
p201
tp202
Rp203
ag3
(g7
S'\t\xd7\xa3>'
p204
tp205
Rp206
ag3
(g7
S'\xa6\x9b\xc4>'
p207
tp208
Rp209
ag3
(g7
S'\xa5\x9b\xc4>'
p210
tp211
Rp212
ag3
(g7
S'\x13\x83\xc0>'
p213
tp214
Rp215
ag3
(g7
S',\xb2\x9d>'
p216
tp217
Rp218
ag3
(g7
S'\xcc\xcc\xcc>'
p219
tp220
Rp221
ag3
(g7
S'\xef\xa7\xc6>'
p222
tp223
Rp224
ag3
(g7
S'\x80j\xbc>'
p225
tp226
Rp227
ag3
(g7
S'\x88\x16\xd9>'
p228
tp229
Rp230
ag3
(g7
S'\x7fj\xbc>'
p231
tp232
Rp233
ag3
(g7
S'\xf0\xa7\xc6>'
p234
tp235
Rp236
ag3
(g7
S'\x1a/\xdd>'
p237
tp238
Rp239
ag3
(g7
S'a\xe5\xd0>'
p240
tp241
Rp242
ag3
(g7
S'\xc5 \xb0>'
p243
tp244
Rp245
ag3
(g7
S'\xc9v\xbe>'
p246
tp247
Rp248
ag3
(g7
S'\xa6\x9b\xc4>'
p249
tp250
Rp251
asS'name'
p252
S'conergence_data1'
p253
sS'notes'
p254
S''
p255
sS'learning_rate'
p256
F1e-05
sS'dropout'
p257
F0.5
sS'top5_t'
p258
(lp259
g3
(g7
S"\x9e\xef'?"
p260
tp261
Rp262
ag3
(g7
S'433?'
p263
tp264
Rp265
ag3
(g7
S'\xa0\x1a/?'
p266
tp267
Rp268
ag3
(g7
S'\xc6K7?'
p269
tp270
Rp271
ag3
(g7
S'}?5?'
p272
tp273
Rp274
ag3
(g7
S'\xa0\x1a/?'
p275
tp276
Rp277
ag3
(g7
S'\x0c\x02+?'
p278
tp279
Rp280
ag3
(g7
S'x\xe9&?'
p281
tp282
Rp283
ag3
(g7
S'}?5?'
p284
tp285
Rp286
ag3
(g7
S'\xecQ8?'
p287
tp288
Rp289
ag3
(g7
S'|?5?'
p290
tp291
Rp292
ag3
(g7
S'\xecQ8?'
p293
tp294
Rp295
ag3
(g7
S'|?5?'
p296
tp297
Rp298
ag3
(g7
S'\x0c\x02+?'
p299
tp300
Rp301
ag3
(g7
S'\xc7K7?'
p302
tp303
Rp304
ag3
(g7
S'\xc2\xf5(?'
p305
tp306
Rp307
ag3
(g7
S'\x10X9?'
p308
tp309
Rp310
ag3
(g7
S'\xa2E6?'
p311
tp312
Rp313
ag3
(g7
S'333?'
p314
tp315
Rp316
ag3
(g7
S'\x13\x83@?'
p317
tp318
Rp319
ag3
(g7
S'\xea&1?'
p320
tp321
Rp322
ag3
(g7
S'433?'
p323
tp324
Rp325
ag3
(g7
S'}?5?'
p326
tp327
Rp328
ag3
(g7
S'V\x0e-?'
p329
tp330
Rp331
ag3
(g7
S'\xea&1?'
p332
tp333
Rp334
ag3
(g7
S'\x11X9?'
p335
tp336
Rp337
ag3
(g7
S'\xc5 0?'
p338
tp339
Rp340
ag3
(g7
S'\x11X9?'
p341
tp342
Rp343
ag3
(g7
S'\x7fj<?'
p344
tp345
Rp346
ag3
(g7
S'{\x14.?'
p347
tp348
Rp349
ag3
(g7
S'\xa1E6?'
p350
tp351
Rp352
ag3
(g7
S'\xea&1?'
p353
tp354
Rp355
ag3
(g7
S'}?5?'
p356
tp357
Rp358
ag3
(g7
S'\xecQ8?'
p359
tp360
Rp361
ag3
(g7
S'\xa1E6?'
p362
tp363
Rp364
ag3
(g7
S'4^:?'
p365
tp366
Rp367
ag3
(g7
S'\xee|??'
p368
tp369
Rp370
ag3
(g7
S'}?5?'
p371
tp372
Rp373
ag3
(g7
S'\x7fj<?'
p374
tp375
Rp376
ag3
(g7
S'433?'
p377
tp378
Rp379
asS'top5_v'
p380
(lp381
g3
(g7
S'*\x87\x16?'
p382
tp383
Rp384
ag3
(g7
S'v\xbe\x1f?'
p385
tp386
Rp387
ag3
(g7
S'\xe7\xfb)?'
p388
tp389
Rp390
ag3
(g7
S'\xc2\xf5(?'
p391
tp392
Rp393
ag3
(g7
S'X94?'
p394
tp395
Rp396
ag3
(g7
S'\xc4 0?'
p397
tp398
Rp399
ag3
(g7
S'.\xdd$?'
p400
tp401
Rp402
ag3
(g7
S'\x9c\xc4 ?'
p403
tp404
Rp405
ag3
(g7
S'\x80j<?'
p406
tp407
Rp408
ag3
(g7
S'\xe7\xfb)?'
p409
tp410
Rp411
ag3
(g7
S'X94?'
p412
tp413
Rp414
ag3
(g7
S'}?5?'
p415
tp416
Rp417
ag3
(g7
S'\n\xd7#?'
p418
tp419
Rp420
ag3
(g7
S'\x9f\x1a/?'
p421
tp422
Rp423
ag3
(g7
S'S\xb8\x1e?'
p424
tp425
Rp426
ag3
(g7
S'\x11X9?'
p427
tp428
Rp429
ag3
(g7
S'{\x14.?'
p430
tp431
Rp432
ag3
(g7
S'433?'
p433
tp434
Rp435
ag3
(g7
S'\x0e-2?'
p436
tp437
Rp438
ag3
(g7
S'1\x08,?'
p439
tp440
Rp441
ag3
(g7
S'Y94?'
p442
tp443
Rp444
ag3
(g7
S'\xee|??'
p445
tp446
Rp447
ag3
(g7
S'x\xe9&?'
p448
tp449
Rp450
ag3
(g7
S'\x11X9?'
p451
tp452
Rp453
ag3
(g7
S'\xe5\xd0"?'
p454
tp455
Rp456
ag3
(g7
S'}?5?'
p457
tp458
Rp459
ag3
(g7
S'\x0c\x02+?'
p460
tp461
Rp462
ag3
(g7
S'T\xe3%?'
p463
tp464
Rp465
ag3
(g7
S"\x9d\xef'?"
p466
tp467
Rp468
ag3
(g7
S'\xa1E6?'
p469
tp470
Rp471
ag3
(g7
S'\xa0\x1a/?'
p472
tp473
Rp474
ag3
(g7
S'\x9f\x1a/?'
p475
tp476
Rp477
ag3
(g7
S'\x0c\x02+?'
p478
tp479
Rp480
ag3
(g7
S'\xe9&1?'
p481
tp482
Rp483
ag3
(g7
S'\x0c\x02+?'
p484
tp485
Rp486
ag3
(g7
S'\xa0\x1a/?'
p487
tp488
Rp489
ag3
(g7
S'\xc7K7?'
p490
tp491
Rp492
ag3
(g7
S'\x08\xac\x1c?'
p493
tp494
Rp495
ag3
(g7
S'\xecQ8?'
p496
tp497
Rp498
ag3
(g7
S'6^:?'
p499
tp500
Rp501
as.