(dp0
S'name'
p1
S'conergence_data1'
p2
sS'learning_rate'
p3
F0.0001
sS'top1'
p4
(lp5
cnumpy.core.multiarray
scalar
p6
(cnumpy
dtype
p7
(S'f4'
p8
I0
I1
tp9
Rp10
(I3
S'<'
p11
NNNI-1
I-1
I0
tp12
bS'\x00\x00\x00<'
p13
tp14
Rp15
ag6
(g10
S'\x00\x00\xb8='
p16
tp17
Rp18
ag6
(g10
S'\x00\x00\x00>'
p19
tp20
Rp21
ag6
(g10
S'\x00\x00@>'
p22
tp23
Rp24
ag6
(g10
S'\x00\x004>'
p25
tp26
Rp27
ag6
(g10
S'\x00\x00\x10>'
p28
tp29
Rp30
ag6
(g10
S'\x00\x00L>'
p31
tp32
Rp33
ag6
(g10
S'\x00\x00P>'
p34
tp35
Rp36
ag6
(g10
S'\x00\x00\\>'
p37
tp38
Rp39
ag6
(g10
S'\x00\x00`>'
p40
tp41
Rp42
ag6
(g10
S'\x00\x00\x86>'
p43
tp44
Rp45
ag6
(g10
S'\x00\x00p>'
p46
tp47
Rp48
ag6
(g10
S'\x00\x00H>'
p49
tp50
Rp51
ag6
(g10
S'\x00\x00P>'
p52
tp53
Rp54
ag6
(g10
S'\x00\x00\x86>'
p55
tp56
Rp57
ag6
(g10
S'\x00\x00\x82>'
p58
tp59
Rp60
ag6
(g10
S'\x00\x00\x92>'
p61
tp62
Rp63
ag6
(g10
S'\x00\x00\xaa>'
p64
tp65
Rp66
ag6
(g10
S'\x00\x00\x88>'
p67
tp68
Rp69
ag6
(g10
S'\x00\x00|>'
p70
tp71
Rp72
ag6
(g10
S'\x00\x00\xb4>'
p73
tp74
Rp75
ag6
(g10
S'\x00\x00\xa8>'
p76
tp77
Rp78
ag6
(g10
S'\x00\x00\xa8>'
p79
tp80
Rp81
ag6
(g10
S'\x00\x00\x92>'
p82
tp83
Rp84
ag6
(g10
S'\x00\x00\x92>'
p85
tp86
Rp87
ag6
(g10
S'\x00\x00\xaa>'
p88
tp89
Rp90
ag6
(g10
S'\x00\x00\xa4>'
p91
tp92
Rp93
ag6
(g10
S'\x00\x00\x98>'
p94
tp95
Rp96
ag6
(g10
S'\x00\x00\xba>'
p97
tp98
Rp99
ag6
(g10
S'\x00\x00\xc2>'
p100
tp101
Rp102
ag6
(g10
S'\x00\x00\x9c>'
p103
tp104
Rp105
ag6
(g10
S'\x00\x00\xbc>'
p106
tp107
Rp108
ag6
(g10
S'\x00\x00\xc0>'
p109
tp110
Rp111
ag6
(g10
S'\x00\x00\xb4>'
p112
tp113
Rp114
ag6
(g10
S'\x00\x00\xc2>'
p115
tp116
Rp117
ag6
(g10
S'\x00\x00\xb6>'
p118
tp119
Rp120
ag6
(g10
S'\x00\x00\xae>'
p121
tp122
Rp123
ag6
(g10
S'\x00\x00\xc6>'
p124
tp125
Rp126
ag6
(g10
S'\x00\x00\xd2>'
p127
tp128
Rp129
ag6
(g10
S'\x00\x00\xb0>'
p130
tp131
Rp132
ag6
(g10
S'\x00\x00\xae>'
p133
tp134
Rp135
ag6
(g10
S'\x00\x00\xbc>'
p136
tp137
Rp138
ag6
(g10
S'\x00\x00\xb2>'
p139
tp140
Rp141
ag6
(g10
S'\x00\x00\xc4>'
p142
tp143
Rp144
ag6
(g10
S'\x00\x00\xaa>'
p145
tp146
Rp147
ag6
(g10
S'\x00\x00\xcc>'
p148
tp149
Rp150
ag6
(g10
S'\x00\x00\xb2>'
p151
tp152
Rp153
ag6
(g10
S'\x00\x00\xb2>'
p154
tp155
Rp156
ag6
(g10
S'\x00\x00\xb8>'
p157
tp158
Rp159
ag6
(g10
S'\x00\x00\xd6>'
p160
tp161
Rp162
ag6
(g10
S'\x00\x00\xcc>'
p163
tp164
Rp165
ag6
(g10
S'\x00\x00\xb6>'
p166
tp167
Rp168
ag6
(g10
S'\x00\x00\xc0>'
p169
tp170
Rp171
ag6
(g10
S'\x00\x00\xc8>'
p172
tp173
Rp174
ag6
(g10
S'\x00\x00\xaa>'
p175
tp176
Rp177
ag6
(g10
S'\x00\x00\xc0>'
p178
tp179
Rp180
ag6
(g10
S'\x00\x00\xe0>'
p181
tp182
Rp183
ag6
(g10
S'\x00\x00\xb0>'
p184
tp185
Rp186
ag6
(g10
S'\x00\x00\xb8>'
p187
tp188
Rp189
ag6
(g10
S'\x00\x00\xf6>'
p190
tp191
Rp192
ag6
(g10
S'\x00\x00\xc0>'
p193
tp194
Rp195
ag6
(g10
S'\x00\x00\xd0>'
p196
tp197
Rp198
ag6
(g10
S'\x00\x00\xc8>'
p199
tp200
Rp201
ag6
(g10
S'\x00\x00\xc2>'
p202
tp203
Rp204
ag6
(g10
S'\x00\x00\xcc>'
p205
tp206
Rp207
ag6
(g10
S'\x00\x00\xb8>'
p208
tp209
Rp210
ag6
(g10
S'\x00\x00\xb8>'
p211
tp212
Rp213
ag6
(g10
S'\x00\x00\xdc>'
p214
tp215
Rp216
ag6
(g10
S'\x00\x00\xdc>'
p217
tp218
Rp219
ag6
(g10
S'\x00\x00\xce>'
p220
tp221
Rp222
ag6
(g10
S'\x00\x00\xc6>'
p223
tp224
Rp225
ag6
(g10
S'\x00\x00\xcc>'
p226
tp227
Rp228
ag6
(g10
S'\x00\x00\xc8>'
p229
tp230
Rp231
ag6
(g10
S'\x00\x00\xe2>'
p232
tp233
Rp234
ag6
(g10
S'\x00\x00\xe8>'
p235
tp236
Rp237
ag6
(g10
S'\x00\x00\xd0>'
p238
tp239
Rp240
ag6
(g10
S'\x00\x00\xd0>'
p241
tp242
Rp243
ag6
(g10
S'\x00\x00\xf4>'
p244
tp245
Rp246
ag6
(g10
S'\x00\x00\xcc>'
p247
tp248
Rp249
ag6
(g10
S'\x00\x00\xc6>'
p250
tp251
Rp252
ag6
(g10
S'\x00\x00\xb8>'
p253
tp254
Rp255
ag6
(g10
S'\x00\x00\xdc>'
p256
tp257
Rp258
ag6
(g10
S'\x00\x00\xe4>'
p259
tp260
Rp261
ag6
(g10
S'\x00\x00\xca>'
p262
tp263
Rp264
ag6
(g10
S'\x00\x00\xc4>'
p265
tp266
Rp267
ag6
(g10
S'\x00\x00\xc8>'
p268
tp269
Rp270
ag6
(g10
S'\x00\x00\xcc>'
p271
tp272
Rp273
ag6
(g10
S'\x00\x00\xcc>'
p274
tp275
Rp276
ag6
(g10
S'\x00\x00\xde>'
p277
tp278
Rp279
ag6
(g10
S'\x00\x00\xea>'
p280
tp281
Rp282
ag6
(g10
S'\x00\x00\xc4>'
p283
tp284
Rp285
ag6
(g10
S'\x00\x00\xe6>'
p286
tp287
Rp288
ag6
(g10
S'\x00\x00\xd8>'
p289
tp290
Rp291
ag6
(g10
S'\x00\x00\xda>'
p292
tp293
Rp294
ag6
(g10
S'\x00\x00\xde>'
p295
tp296
Rp297
ag6
(g10
S'\x00\x00\xea>'
p298
tp299
Rp300
ag6
(g10
S'\x00\x00\xce>'
p301
tp302
Rp303
ag6
(g10
S'\x00\x00\xbc>'
p304
tp305
Rp306
ag6
(g10
S'\x00\x00\xf8>'
p307
tp308
Rp309
ag6
(g10
S'\x00\x00\xd6>'
p310
tp311
Rp312
asS'notes'
p313
S''
p314
sS'dropout'
p315
F0.5
sS'top5'
p316
(lp317
g6
(g10
S'\x00\x00p='
p318
tp319
Rp320
ag6
(g10
S'\x00\x00\x8e>'
p321
tp322
Rp323
ag6
(g10
S'\x00\x00\xb2>'
p324
tp325
Rp326
ag6
(g10
S'\x00\x00\xdc>'
p327
tp328
Rp329
ag6
(g10
S'\x00\x00\x00?'
p330
tp331
Rp332
ag6
(g10
S'\x00\x00\xc6>'
p333
tp334
Rp335
ag6
(g10
S'\x00\x00\xea>'
p336
tp337
Rp338
ag6
(g10
S'\x00\x00\xf4>'
p339
tp340
Rp341
ag6
(g10
S'\x00\x00\t?'
p342
tp343
Rp344
ag6
(g10
S'\x00\x00\xfe>'
p345
tp346
Rp347
ag6
(g10
S'\x00\x00\x11?'
p348
tp349
Rp350
ag6
(g10
S'\x00\x00\x07?'
p351
tp352
Rp353
ag6
(g10
S'\x00\x00\x05?'
p354
tp355
Rp356
ag6
(g10
S'\x00\x00\x03?'
p357
tp358
Rp359
ag6
(g10
S'\x00\x00\x0e?'
p360
tp361
Rp362
ag6
(g10
S'\x00\x00\x16?'
p363
tp364
Rp365
ag6
(g10
S'\x00\x00\x16?'
p366
tp367
Rp368
ag6
(g10
S'\x00\x00\x1e?'
p369
tp370
Rp371
ag6
(g10
S'\x00\x00\x14?'
p372
tp373
Rp374
ag6
(g10
S'\x00\x00\x1e?'
p375
tp376
Rp377
ag6
(g10
S'\x00\x00(?'
p378
tp379
Rp380
ag6
(g10
S'\x00\x00\x1a?'
p381
tp382
Rp383
ag6
(g10
S'\x00\x00\x1f?'
p384
tp385
Rp386
ag6
(g10
S'\x00\x00!?'
p387
tp388
Rp389
ag6
(g10
S'\x00\x00\x1e?'
p390
tp391
Rp392
ag6
(g10
S'\x00\x00\x13?'
p393
tp394
Rp395
ag6
(g10
S'\x00\x00"?'
p396
tp397
Rp398
ag6
(g10
S'\x00\x00\x1e?'
p399
tp400
Rp401
ag6
(g10
S'\x00\x00/?'
p402
tp403
Rp404
ag6
(g10
S'\x00\x00 ?'
p405
tp406
Rp407
ag6
(g10
S'\x00\x00#?'
p408
tp409
Rp410
ag6
(g10
S'\x00\x00+?'
p411
tp412
Rp413
ag6
(g10
S'\x00\x004?'
p414
tp415
Rp416
ag6
(g10
S'\x00\x00%?'
p417
tp418
Rp419
ag6
(g10
S'\x00\x005?'
p420
tp421
Rp422
ag6
(g10
S'\x00\x007?'
p423
tp424
Rp425
ag6
(g10
S'\x00\x00\x18?'
p426
tp427
Rp428
ag6
(g10
S'\x00\x00&?'
p429
tp430
Rp431
ag6
(g10
S'\x00\x004?'
p432
tp433
Rp434
ag6
(g10
S'\x00\x00\x1e?'
p435
tp436
Rp437
ag6
(g10
S'\x00\x00#?'
p438
tp439
Rp440
ag6
(g10
S'\x00\x00-?'
p441
tp442
Rp443
ag6
(g10
S'\x00\x00,?'
p444
tp445
Rp446
ag6
(g10
S'\x00\x00+?'
p447
tp448
Rp449
ag6
(g10
S'\x00\x00,?'
p450
tp451
Rp452
ag6
(g10
S'\x00\x008?'
p453
tp454
Rp455
ag6
(g10
S'\x00\x00,?'
p456
tp457
Rp458
ag6
(g10
S'\x00\x00.?'
p459
tp460
Rp461
ag6
(g10
S'\x00\x00.?'
p462
tp463
Rp464
ag6
(g10
S'\x00\x00.?'
p465
tp466
Rp467
ag6
(g10
S'\x00\x002?'
p468
tp469
Rp470
ag6
(g10
S'\x00\x00+?'
p471
tp472
Rp473
ag6
(g10
S'\x00\x00/?'
p474
tp475
Rp476
ag6
(g10
S'\x00\x002?'
p477
tp478
Rp479
ag6
(g10
S'\x00\x00+?'
p480
tp481
Rp482
ag6
(g10
S'\x00\x004?'
p483
tp484
Rp485
ag6
(g10
S'\x00\x00N?'
p486
tp487
Rp488
ag6
(g10
S'\x00\x005?'
p489
tp490
Rp491
ag6
(g10
S'\x00\x002?'
p492
tp493
Rp494
ag6
(g10
S'\x00\x00C?'
p495
tp496
Rp497
ag6
(g10
S'\x00\x008?'
p498
tp499
Rp500
ag6
(g10
S'\x00\x003?'
p501
tp502
Rp503
ag6
(g10
S'\x00\x003?'
p504
tp505
Rp506
ag6
(g10
S'\x00\x006?'
p507
tp508
Rp509
ag6
(g10
S'\x00\x000?'
p510
tp511
Rp512
ag6
(g10
S'\x00\x001?'
p513
tp514
Rp515
ag6
(g10
S'\x00\x006?'
p516
tp517
Rp518
ag6
(g10
S'\x00\x00;?'
p519
tp520
Rp521
ag6
(g10
S'\x00\x00;?'
p522
tp523
Rp524
ag6
(g10
S'\x00\x005?'
p525
tp526
Rp527
ag6
(g10
S'\x00\x004?'
p528
tp529
Rp530
ag6
(g10
S'\x00\x00@?'
p531
tp532
Rp533
ag6
(g10
S'\x00\x009?'
p534
tp535
Rp536
ag6
(g10
S'\x00\x00<?'
p537
tp538
Rp539
ag6
(g10
S'\x00\x00@?'
p540
tp541
Rp542
ag6
(g10
S'\x00\x00-?'
p543
tp544
Rp545
ag6
(g10
S'\x00\x00=?'
p546
tp547
Rp548
ag6
(g10
S'\x00\x00<?'
p549
tp550
Rp551
ag6
(g10
S'\x00\x00,?'
p552
tp553
Rp554
ag6
(g10
S'\x00\x00.?'
p555
tp556
Rp557
ag6
(g10
S'\x00\x004?'
p558
tp559
Rp560
ag6
(g10
S'\x00\x007?'
p561
tp562
Rp563
ag6
(g10
S'\x00\x00@?'
p564
tp565
Rp566
ag6
(g10
S'\x00\x00<?'
p567
tp568
Rp569
ag6
(g10
S'\x00\x005?'
p570
tp571
Rp572
ag6
(g10
S'\x00\x000?'
p573
tp574
Rp575
ag6
(g10
S'\x00\x00;?'
p576
tp577
Rp578
ag6
(g10
S'\x00\x00/?'
p579
tp580
Rp581
ag6
(g10
S'\x00\x00:?'
p582
tp583
Rp584
ag6
(g10
S'\x00\x00<?'
p585
tp586
Rp587
ag6
(g10
S'\x00\x002?'
p588
tp589
Rp590
ag6
(g10
S'\x00\x00;?'
p591
tp592
Rp593
ag6
(g10
S'\x00\x00.?'
p594
tp595
Rp596
ag6
(g10
S'\x00\x003?'
p597
tp598
Rp599
ag6
(g10
S'\x00\x00>?'
p600
tp601
Rp602
ag6
(g10
S'\x00\x00I?'
p603
tp604
Rp605
ag6
(g10
S'\x00\x005?'
p606
tp607
Rp608
ag6
(g10
S'\x00\x00<?'
p609
tp610
Rp611
ag6
(g10
S'\x00\x00D?'
p612
tp613
Rp614
ag6
(g10
S'\x00\x00=?'
p615
tp616
Rp617
as.