(dp0
S'name'
p1
S'conergence_data'
p2
sS'learning_rate'
p3
F0.0001
sS'top1'
p4
(lp5
cnumpy.core.multiarray
scalar
p6
(cnumpy
dtype
p7
(S'f4'
p8
I0
I1
tp9
Rp10
(I3
S'<'
p11
NNNI-1
I-1
I0
tp12
bS'\x00\x00\xc8>'
p13
tp14
Rp15
asS'notes'
p16
S''
p17
sS'dropout'
p18
F0.5
sS'top5'
p19
(lp20
g6
(g10
S'\x00\x004?'
p21
tp22
Rp23
as.