(dp0
S'top1_t'
p1
(lp2
cnumpy.core.multiarray
scalar
p3
(cnumpy
dtype
p4
(S'f4'
p5
I0
I1
tp6
Rp7
(I3
S'<'
p8
NNNI-1
I-1
I0
tp9
bS'\xc5 \xb0>'
p10
tp11
Rp12
ag3
(g7
S'\xebQ\xb8>'
p13
tp14
Rp15
ag3
(g7
S'\xef\xa7\xc6>'
p16
tp17
Rp18
ag3
(g7
S'6^\xba>'
p19
tp20
Rp21
ag3
(g7
S'8\xb4\xc8>'
p22
tp23
Rp24
ag3
(g7
S':\xb4\xc8>'
p25
tp26
Rp27
ag3
(g7
S'~j\xbc>'
p28
tp29
Rp30
ag3
(g7
S'\xe7\xfb\xa9>'
p31
tp32
Rp33
ag3
(g7
S'\xb2\x9d\xef>'
p34
tp35
Rp36
ag3
(g7
S'\xf4\xfd\xd4>'
p37
tp38
Rp39
ag3
(g7
S'\xaa\xf1\xd2>'
p40
tp41
Rp42
ag3
(g7
S'\\\x8f\xc2>'
p43
tp44
Rp45
ag3
(g7
S'X9\xb4>'
p46
tp47
Rp48
ag3
(g7
S'\xd6x\xe9>'
p49
tp50
Rp51
ag3
(g7
S'\x1e\x85\xeb>'
p52
tp53
Rp54
ag3
(g7
S'2\x08\xac>'
p55
tp56
Rp57
ag3
(g7
S'\xb2\x9d\xef>'
p58
tp59
Rp60
ag3
(g7
S'\xd4x\xe9>'
p61
tp62
Rp63
ag3
(g7
S'\xf8S\xe3>'
p64
tp65
Rp66
ag3
(g7
S'\xd5x\xe9>'
p67
tp68
Rp69
ag3
(g7
S'A`\xe5>'
p70
tp71
Rp72
ag3
(g7
S'\x88\x16\xd9>'
p73
tp74
Rp75
ag3
(g7
S'\x1c/\xdd>'
p76
tp77
Rp78
ag3
(g7
S'\x83\xc0\xca>'
p79
tp80
Rp81
ag3
(g7
S'\xb2\x9d\xef>'
p82
tp83
Rp84
ag3
(g7
S'\xfc\xa9\xf1>'
p85
tp86
Rp87
ag3
(g7
S'\xb3\x9d\xef>'
p88
tp89
Rp90
ag3
(g7
S'B`\xe5>'
p91
tp92
Rp93
asS'top1_v'
p94
(lp95
g3
(g7
S'\x8bl\xe7>'
p96
tp97
Rp98
ag3
(g7
S'\xaa\xf1\xd2>'
p99
tp100
Rp101
ag3
(g7
S'\x83\xc0\xca>'
p102
tp103
Rp104
ag3
(g7
S'\x82\xc0\xca>'
p105
tp106
Rp107
ag3
(g7
S'=\n\xd7>'
p108
tp109
Rp110
ag3
(g7
S'~j\xbc>'
p111
tp112
Rp113
ag3
(g7
S'6^\xba>'
p114
tp115
Rp116
ag3
(g7
S'9\xb4\xc8>'
p117
tp118
Rp119
ag3
(g7
S'\xcd\xcc\xcc>'
p120
tp121
Rp122
ag3
(g7
S'X9\xb4>'
p123
tp124
Rp125
ag3
(g7
S':\xb4\xc8>'
p126
tp127
Rp128
ag3
(g7
S'\x16\xd9\xce>'
p129
tp130
Rp131
ag3
(g7
S'z\x14\xae>'
p132
tp133
Rp134
ag3
(g7
S'\x16\xd9\xce>'
p135
tp136
Rp137
ag3
(g7
S'\x84\xc0\xca>'
p138
tp139
Rp140
ag3
(g7
S'\x18\xd9\xce>'
p141
tp142
Rp143
ag3
(g7
S'\xaa\xf1\xd2>'
p144
tp145
Rp146
ag3
(g7
S'\xf7S\xe3>'
p147
tp148
Rp149
ag3
(g7
S'>\n\xd7>'
p150
tp151
Rp152
ag3
(g7
S'`\xe5\xd0>'
p153
tp154
Rp155
ag3
(g7
S'\xd1"\xdb>'
p156
tp157
Rp158
ag3
(g7
S'\xaa\xf1\xd2>'
p159
tp160
Rp161
ag3
(g7
S'\xf8S\xe3>'
p162
tp163
Rp164
ag3
(g7
S'\xce\xcc\xcc>'
p165
tp166
Rp167
ag3
(g7
S'\x80j\xbc>'
p168
tp169
Rp170
ag3
(g7
S'\xb2\x9d\xef>'
p171
tp172
Rp173
ag3
(g7
S'\xaa\xf1\xd2>'
p174
tp175
Rp176
ag3
(g7
S'\xcd\xcc\xcc>'
p177
tp178
Rp179
asS'name'
p180
S'conergence_data1'
p181
sS'notes'
p182
S''
p183
sS'learning_rate'
p184
F0.0001
sS'dropout'
p185
F0.5
sS'top5_t'
p186
(lp187
g3
(g7
S'\xc0\xca!?'
p188
tp189
Rp190
ag3
(g7
S'V\x0e-?'
p191
tp192
Rp193
ag3
(g7
S'\xc7K7?'
p194
tp195
Rp196
ag3
(g7
S'}?5?'
p197
tp198
Rp199
ag3
(g7
S'\xa2E6?'
p200
tp201
Rp202
ag3
(g7
S'\x10X9?'
p203
tp204
Rp205
ag3
(g7
S'\xa2E6?'
p206
tp207
Rp208
ag3
(g7
S'\x0c\x02+?'
p209
tp210
Rp211
ag3
(g7
S'\x10X9?'
p212
tp213
Rp214
ag3
(g7
S'\x13\x83@?'
p215
tp216
Rp217
ag3
(g7
S'X94?'
p218
tp219
Rp220
ag3
(g7
S'\x13\x83@?'
p221
tp222
Rp223
ag3
(g7
S'\xa4p=?'
p224
tp225
Rp226
ag3
(g7
S'\xec|??'
p227
tp228
Rp229
ag3
(g7
S'\xcb\xa1E?'
p230
tp231
Rp232
ag3
(g7
S'Y94?'
p233
tp234
Rp235
ag3
(g7
S']\x8fB?'
p236
tp237
Rp238
ag3
(g7
S'\xcb\xa1E?'
p239
tp240
Rp241
ag3
(g7
S'\xee|??'
p242
tp243
Rp244
ag3
(g7
S'\xf0\xa7F?'
p245
tp246
Rp247
ag3
(g7
S'\x82\x95C?'
p248
tp249
Rp250
ag3
(g7
S'Zd;?'
p251
tp252
Rp253
ag3
(g7
S'\xf0\xa7F?'
p254
tp255
Rp256
ag3
(g7
S'\xa2E6?'
p257
tp258
Rp259
ag3
(g7
S'\xa6\x9bD?'
p260
tp261
Rp262
ag3
(g7
S'_\xbaI?'
p263
tp264
Rp265
ag3
(g7
S'\xa6\x9bD?'
p266
tp267
Rp268
ag3
(g7
S'7\x89A?'
p269
tp270
Rp271
asS'top5_v'
p272
(lp273
g3
(g7
S'\xc8K7?'
p274
tp275
Rp276
ag3
(g7
S'\xe7\xfb)?'
p277
tp278
Rp279
ag3
(g7
S'\xc2\xf5(?'
p280
tp281
Rp282
ag3
(g7
S'\x10X9?'
p283
tp284
Rp285
ag3
(g7
S'433?'
p286
tp287
Rp288
ag3
(g7
S'\xecQ8?'
p289
tp290
Rp291
ag3
(g7
S'X94?'
p292
tp293
Rp294
ag3
(g7
S'V\x0e-?'
p295
tp296
Rp297
ag3
(g7
S'5^:?'
p298
tp299
Rp300
ag3
(g7
S'\xea&1?'
p301
tp302
Rp303
ag3
(g7
S'\xecQ8?'
p304
tp305
Rp306
ag3
(g7
S'Yd;?'
p307
tp308
Rp309
ag3
(g7
S'\x0c\x02+?'
p310
tp311
Rp312
ag3
(g7
S'\xebQ8?'
p313
tp314
Rp315
ag3
(g7
S'1\x08,?'
p316
tp317
Rp318
ag3
(g7
S'\x7fj<?'
p319
tp320
Rp321
ag3
(g7
S'Y94?'
p322
tp323
Rp324
ag3
(g7
S'\xa8\xc6K?'
p325
tp326
Rp327
ag3
(g7
S'\xecQ8?'
p328
tp329
Rp330
ag3
(g7
S'\x80j<?'
p331
tp332
Rp333
ag3
(g7
S'\xa5p=?'
p334
tp335
Rp336
ag3
(g7
S'\x13\x83@?'
p337
tp338
Rp339
ag3
(g7
S'5^:?'
p340
tp341
Rp342
ag3
(g7
S'\x10X9?'
p343
tp344
Rp345
ag3
(g7
S'\xc4 0?'
p346
tp347
Rp348
ag3
(g7
S'\\\x8fB?'
p349
tp350
Rp351
ag3
(g7
S'}?5?'
p352
tp353
Rp354
ag3
(g7
S'\xc7K7?'
p355
tp356
Rp357
as.